target datalayout = "e-m:e-p270:32:32-p271:32:32-p272:64:64-i64:64-i128:128-f80:128-n8:16:32:64-S128"
target triple = "x86_64-pc-linux-gnu"

%struct.Curl_hash = type { ptr, ptr, ptr, ptr, i64, i64 }
%struct.Curl_llist = type { ptr, ptr, ptr, i64 }
%struct.Curl_hash_element = type { %struct.Curl_llist_node, ptr, ptr, i64, [1 x i8] }
%struct.Curl_llist_node = type { ptr, ptr, ptr, ptr }

; Function Attrs: nounwind uwtable
define hidden i32 @Curl_hash_delete(ptr noundef %0, ptr noundef %1, i64 noundef %2) #0 {
  %4 = alloca i32, align 4
  %5 = alloca ptr, align 8
  %6 = alloca ptr, align 8
  %7 = alloca i64, align 8
  %8 = alloca ptr, align 8
  %9 = alloca ptr, align 8
  %10 = alloca ptr, align 8
  %11 = alloca i32, align 4
  store ptr %0, ptr %5, align 8, !tbaa !3
  store ptr %1, ptr %6, align 8, !tbaa !10
  store i64 %2, ptr %7, align 8, !tbaa !8
  br label %12

12:                                               ; preds = %3
  br label %13

13:                                               ; preds = %12
  br label %14

14:                                               ; preds = %13
  br label %15

15:                                               ; preds = %14
  br label %16

16:                                               ; preds = %15
  br label %17

17:                                               ; preds = %16
  %18 = load ptr, ptr %5, align 8, !tbaa !3
  %19 = getelementptr inbounds nuw %struct.Curl_hash, ptr %18, i32 0, i32 0
  %20 = load ptr, ptr %19, align 8, !tbaa !11
  %21 = icmp ne ptr %20, null
  br i1 %21, label %22, label %75

22:                                               ; preds = %17
  call void @llvm.lifetime.start.p0(i64 8, ptr %8) #5
  call void @llvm.lifetime.start.p0(i64 8, ptr %9) #5
  %23 = load ptr, ptr %5, align 8, !tbaa !3
  %24 = getelementptr inbounds nuw %struct.Curl_hash, ptr %23, i32 0, i32 0
  %25 = load ptr, ptr %24, align 8, !tbaa !11
  %26 = load ptr, ptr %5, align 8, !tbaa !3
  %27 = getelementptr inbounds nuw %struct.Curl_hash, ptr %26, i32 0, i32 1
  %28 = load ptr, ptr %27, align 8, !tbaa !14
  %29 = load ptr, ptr %6, align 8, !tbaa !10
  %30 = load i64, ptr %7, align 8, !tbaa !8
  %31 = load ptr, ptr %5, align 8, !tbaa !3
  %32 = getelementptr inbounds nuw %struct.Curl_hash, ptr %31, i32 0, i32 4
  %33 = load i64, ptr %32, align 8, !tbaa !18
  %34 = call i64 %28(ptr noundef %29, i64 noundef %30, i64 noundef %33)
  %35 = getelementptr inbounds nuw %struct.Curl_llist, ptr %25, i64 %34
  store ptr %35, ptr %9, align 8, !tbaa !21
  %36 = load ptr, ptr %9, align 8, !tbaa !21
  %37 = call ptr @Curl_llist_head(ptr noundef %36)
  store ptr %37, ptr %8, align 8, !tbaa !22
  br label %38

38:                                               ; preds = %68, %22
  %39 = load ptr, ptr %8, align 8, !tbaa !22
  %40 = icmp ne ptr %39, null
  br i1 %40, label %41, label %71

41:                                               ; preds = %38
  call void @llvm.lifetime.start.p0(i64 8, ptr %10) #5
  %42 = load ptr, ptr %8, align 8, !tbaa !22
  %43 = call ptr @Curl_node_elem(ptr noundef %42)
  store ptr %43, ptr %10, align 8, !tbaa !24
  %44 = load ptr, ptr %5, align 8, !tbaa !3
  %45 = getelementptr inbounds nuw %struct.Curl_hash, ptr %44, i32 0, i32 2
  %46 = load ptr, ptr %45, align 8, !tbaa !15
  %47 = load ptr, ptr %10, align 8, !tbaa !24
  %48 = getelementptr inbounds nuw %struct.Curl_hash_element, ptr %47, i32 0, i32 4
  %49 = getelementptr inbounds [1 x i8], ptr %48, i64 0, i64 0
  %50 = load ptr, ptr %10, align 8, !tbaa !24
  %51 = getelementptr inbounds nuw %struct.Curl_hash_element, ptr %50, i32 0, i32 3
  %52 = load i64, ptr %51, align 8, !tbaa !26
  %53 = load ptr, ptr %6, align 8, !tbaa !10
  %54 = load i64, ptr %7, align 8, !tbaa !8
  %55 = call i64 %46(ptr noundef %49, i64 noundef %52, ptr noundef %53, i64 noundef %54)
  %56 = icmp ne i64 %55, 0
  br i1 %56, label %57, label %64

57:                                               ; preds = %41
  %58 = load ptr, ptr %8, align 8, !tbaa !22
  %59 = load ptr, ptr %5, align 8, !tbaa !3
  call void @Curl_node_uremove(ptr noundef %58, ptr noundef %59)
  %60 = load ptr, ptr %5, align 8, !tbaa !3
  %61 = getelementptr inbounds nuw %struct.Curl_hash, ptr %60, i32 0, i32 5
  %62 = load i64, ptr %61, align 8, !tbaa !17
  %63 = add i64 %62, -1
  store i64 %63, ptr %61, align 8, !tbaa !17
  store i32 0, ptr %4, align 4
  store i32 1, ptr %11, align 4
  br label %65

64:                                               ; preds = %41
  store i32 0, ptr %11, align 4
  br label %65

65:                                               ; preds = %64, %57
  call void @llvm.lifetime.end.p0(i64 8, ptr %10) #5
  %66 = load i32, ptr %11, align 4
  switch i32 %66, label %72 [
    i32 0, label %67
  ]

67:                                               ; preds = %65
  br label %68

68:                                               ; preds = %67
  %69 = load ptr, ptr %8, align 8, !tbaa !22
  %70 = call ptr @Curl_node_next(ptr noundef %69)
  store ptr %70, ptr %8, align 8, !tbaa !22
  br label %38, !llvm.loop !32

71:                                               ; preds = %38
  store i32 0, ptr %11, align 4
  br label %72

72:                                               ; preds = %71, %65
  call void @llvm.lifetime.end.p0(i64 8, ptr %9) #5
  call void @llvm.lifetime.end.p0(i64 8, ptr %8) #5
  %73 = load i32, ptr %11, align 4
  switch i32 %73, label %78 [
    i32 0, label %74
    i32 1, label %76
  ]

74:                                               ; preds = %72
  br label %75

75:                                               ; preds = %74, %17
  store i32 1, ptr %4, align 4
  br label %76

76:                                               ; preds = %75, %72
  %77 = load i32, ptr %4, align 4
  ret i32 %77

78:                                               ; preds = %72
  unreachable
}