; Function Attrs: nounwind uwtable
define hidden range(i32 0, 2) i32 @Curl_hash_delete(ptr noundef %0, ptr noundef %1, i64 noundef %2) local_unnamed_addr #1 {
  %4 = load ptr, ptr %0, align 8, !tbaa !3
  %.not = icmp eq ptr %4, null
  br i1 %.not, label %.thread, label %5

5:                                                ; preds = %3
  %6 = getelementptr inbounds nuw i8, ptr %0, i64 8
  %7 = load ptr, ptr %6, align 8, !tbaa !10
  %8 = getelementptr inbounds nuw i8, ptr %0, i64 32
  %9 = load i64, ptr %8, align 8, !tbaa !14
  %10 = tail call i64 %7(ptr noundef %1, i64 noundef %2, i64 noundef %9) #9
  %11 = getelementptr inbounds nuw %struct.Curl_llist, ptr %4, i64 %10
  %12 = tail call ptr @Curl_llist_head(ptr noundef nonnull %11) #9
  %.not24.not28 = icmp eq ptr %12, null
  br i1 %.not24.not28, label %.thread, label %.lr.ph

.lr.ph:                                           ; preds = %5
  %13 = getelementptr inbounds nuw i8, ptr %0, i64 16
  br label %14

14:                                               ; preds = %.lr.ph, %.critedge
  %.02229 = phi ptr [ %12, %.lr.ph ], [ %21, %.critedge ]
  %15 = tail call ptr @Curl_node_elem(ptr noundef nonnull %.02229) #9
  %16 = load ptr, ptr %13, align 8, !tbaa !11
  %17 = getelementptr inbounds nuw i8, ptr %15, i64 56
  %18 = getelementptr inbounds nuw i8, ptr %15, i64 48
  %19 = load i64, ptr %18, align 8, !tbaa !18
  %20 = tail call i64 %16(ptr noundef nonnull %17, i64 noundef %19, ptr noundef %1, i64 noundef %2) #9
  %.not25 = icmp eq i64 %20, 0
  br i1 %.not25, label %.critedge, label %22

.critedge:                                        ; preds = %14
  %21 = tail call ptr @Curl_node_next(ptr noundef nonnull %.02229) #9
  %.not24.not = icmp eq ptr %21, null
  br i1 %.not24.not, label %.thread, label %14, !llvm.loop !25

22:                                               ; preds = %14
  tail call void @Curl_node_uremove(ptr noundef nonnull %.02229, ptr noundef nonnull %0) #9
  %23 = getelementptr inbounds nuw i8, ptr %0, i64 40
  %24 = load i64, ptr %23, align 8, !tbaa !13
  %25 = add i64 %24, -1
  store i64 %25, ptr %23, align 8, !tbaa !13
  br label %.thread

.thread:                                          ; preds = %.critedge, %5, %3, %22
  %.3 = phi i32 [ 0, %22 ], [ 1, %3 ], [ 1, %5 ], [ 1, %.critedge ]
  ret i32 %.3
}